target datalayout = "e-m:e-p270:32:32-p271:32:32-p272:64:64-i64:64-i128:128-f80:128-n8:16:32:64-S128"
target triple = "x86_64-pc-linux-gnu"

%struct.lv_subject_t = type { %struct.lv_ll_t, %union.lv_subject_value_t, %union.lv_subject_value_t, ptr, i32 }
%struct.lv_ll_t = type { i32, ptr, ptr }
%union.lv_subject_value_t = type { ptr }
%struct._lv_observer_t = type { ptr, ptr, ptr, ptr, i8 }
%struct._lv_obj_t = type { ptr, ptr, ptr, ptr, ptr, %struct.lv_area_t, i32, i16, i16 }
%struct.lv_area_t = type { i32, i32, i32, i32 }
%struct._lv_obj_spec_attr_t = type { ptr, ptr, %struct.lv_event_list_t, %struct.lv_point_t, i32, i32, i16, i16 }
%struct.lv_event_list_t = type { %struct._lv_array_t, i8 }
%struct._lv_array_t = type { ptr, i32, i32, i32, i8 }
%struct.lv_point_t = type { i32, i32 }
%struct._lv_event_dsc_t = type { ptr, ptr, i32 }

; Function Attrs: nounwind uwtable
define void @lv_observer_remove(ptr noundef %0) #0 {
  %2 = alloca ptr, align 8
  store ptr %0, ptr %2, align 8, !tbaa !17
  br label %3

3:                                                ; preds = %1
  %4 = load ptr, ptr %2, align 8, !tbaa !17
  %5 = icmp ne ptr %4, null
  br i1 %5, label %10, label %6

6:                                                ; preds = %3
  br label %7

7:                                                ; preds = %6
  br label %8

8:                                                ; preds = %7
  br label %9

9:                                                ; preds = %8, %9
  br label %9

10:                                               ; preds = %3
  br label %11

11:                                               ; preds = %10
  %12 = load ptr, ptr %2, align 8, !tbaa !17
  %13 = getelementptr inbounds nuw %struct._lv_observer_t, ptr %12, i32 0, i32 0
  %14 = load ptr, ptr %13, align 8, !tbaa !25
  %15 = getelementptr inbounds nuw %struct.lv_subject_t, ptr %14, i32 0, i32 4
  %16 = load i32, ptr %15, align 8
  %17 = and i32 %16, -268435457
  %18 = or i32 %17, 268435456
  store i32 %18, ptr %15, align 8
  %19 = load ptr, ptr %2, align 8, !tbaa !17
  %20 = getelementptr inbounds nuw %struct._lv_observer_t, ptr %19, i32 0, i32 0
  %21 = load ptr, ptr %20, align 8, !tbaa !25
  %22 = getelementptr inbounds nuw %struct.lv_subject_t, ptr %21, i32 0, i32 0
  %23 = load ptr, ptr %2, align 8, !tbaa !17
  call void @lv_ll_remove(ptr noundef %22, ptr noundef %23)
  %24 = load ptr, ptr %2, align 8, !tbaa !17
  %25 = getelementptr inbounds nuw %struct._lv_observer_t, ptr %24, i32 0, i32 4
  %26 = load i8, ptr %25, align 8
  %27 = and i8 %26, 1
  %28 = zext i8 %27 to i32
  %29 = icmp ne i32 %28, 0
  br i1 %29, label %30, label %34

30:                                               ; preds = %11
  %31 = load ptr, ptr %2, align 8, !tbaa !17
  %32 = getelementptr inbounds nuw %struct._lv_observer_t, ptr %31, i32 0, i32 3
  %33 = load ptr, ptr %32, align 8, !tbaa !19
  call void @lv_free(ptr noundef %33)
  br label %34

34:                                               ; preds = %30, %11
  %35 = load ptr, ptr %2, align 8, !tbaa !17
  call void @lv_free(ptr noundef %35)
  ret void
}

; Function Attrs: nounwind uwtable
define void @lv_obj_remove_from_subject(ptr noundef %0, ptr noundef %1) #0 {
  %3 = alloca ptr, align 8
  %4 = alloca ptr, align 8
  %5 = alloca i32, align 4
  %6 = alloca i32, align 4
  %7 = alloca ptr, align 8
  %8 = alloca ptr, align 8
  store ptr %0, ptr %3, align 8, !tbaa !26
  store ptr %1, ptr %4, align 8, !tbaa !3
  call void @llvm.lifetime.start.p0(i64 4, ptr %5) #6
  call void @llvm.lifetime.start.p0(i64 4, ptr %6) #6
  %9 = load ptr, ptr %3, align 8, !tbaa !26
  %10 = getelementptr inbounds nuw %struct._lv_obj_t, ptr %9, i32 0, i32 2
  %11 = load ptr, ptr %10, align 8, !tbaa !29
  %12 = icmp ne ptr %11, null
  br i1 %12, label %13, label %19

13:                                               ; preds = %2
  %14 = load ptr, ptr %3, align 8, !tbaa !26
  %15 = getelementptr inbounds nuw %struct._lv_obj_t, ptr %14, i32 0, i32 2
  %16 = load ptr, ptr %15, align 8, !tbaa !29
  %17 = getelementptr inbounds nuw %struct._lv_obj_spec_attr_t, ptr %16, i32 0, i32 2
  %18 = call i32 @lv_event_get_count(ptr noundef %17)
  br label %20

19:                                               ; preds = %2
  br label %20

20:                                               ; preds = %19, %13
  %21 = phi i32 [ %18, %13 ], [ 0, %19 ]
  store i32 %21, ptr %6, align 4, !tbaa !7
  %22 = load i32, ptr %6, align 4, !tbaa !7
  %23 = sub nsw i32 %22, 1
  store i32 %23, ptr %5, align 4, !tbaa !7
  br label %24

24:                                               ; preds = %54, %20
  %25 = load i32, ptr %5, align 4, !tbaa !7
  %26 = icmp sge i32 %25, 0
  br i1 %26, label %27, label %57

27:                                               ; preds = %24
  call void @llvm.lifetime.start.p0(i64 8, ptr %7) #6
  %28 = load ptr, ptr %3, align 8, !tbaa !26
  %29 = load i32, ptr %5, align 4, !tbaa !7
  %30 = call ptr @lv_obj_get_event_dsc(ptr noundef %28, i32 noundef %29)
  store ptr %30, ptr %7, align 8, !tbaa !36
  %31 = load ptr, ptr %7, align 8, !tbaa !36
  %32 = getelementptr inbounds nuw %struct._lv_event_dsc_t, ptr %31, i32 0, i32 0
  %33 = load ptr, ptr %32, align 8, !tbaa !38
  %34 = icmp eq ptr %33, @unsubscribe_on_delete_cb
  br i1 %34, label %35, label %53

35:                                               ; preds = %27
  call void @llvm.lifetime.start.p0(i64 8, ptr %8) #6
  %36 = load ptr, ptr %7, align 8, !tbaa !36
  %37 = getelementptr inbounds nuw %struct._lv_event_dsc_t, ptr %36, i32 0, i32 1
  %38 = load ptr, ptr %37, align 8, !tbaa !40
  store ptr %38, ptr %8, align 8, !tbaa !17
  %39 = load ptr, ptr %4, align 8, !tbaa !3
  %40 = icmp eq ptr %39, null
  br i1 %40, label %47, label %41

41:                                               ; preds = %35
  %42 = load ptr, ptr %4, align 8, !tbaa !3
  %43 = load ptr, ptr %8, align 8, !tbaa !17
  %44 = getelementptr inbounds nuw %struct._lv_observer_t, ptr %43, i32 0, i32 0
  %45 = load ptr, ptr %44, align 8, !tbaa !25
  %46 = icmp eq ptr %42, %45
  br i1 %46, label %47, label %52

47:                                               ; preds = %41, %35
  %48 = load ptr, ptr %8, align 8, !tbaa !17
  call void @lv_observer_remove(ptr noundef %48)
  %49 = load ptr, ptr %3, align 8, !tbaa !26
  %50 = load i32, ptr %5, align 4, !tbaa !7
  %51 = call zeroext i1 @lv_obj_remove_event(ptr noundef %49, i32 noundef %50)
  br label %52

52:                                               ; preds = %47, %41
  call void @llvm.lifetime.end.p0(i64 8, ptr %8) #6
  br label %53

53:                                               ; preds = %52, %27
  call void @llvm.lifetime.end.p0(i64 8, ptr %7) #6
  br label %54

54:                                               ; preds = %53
  %55 = load i32, ptr %5, align 4, !tbaa !7
  %56 = add nsw i32 %55, -1
  store i32 %56, ptr %5, align 4, !tbaa !7
  br label %24, !llvm.loop !41

57:                                               ; preds = %24
  %58 = load ptr, ptr %3, align 8, !tbaa !26
  %59 = load ptr, ptr %4, align 8, !tbaa !3
  %60 = call i32 @lv_obj_remove_event_cb_with_user_data(ptr noundef %58, ptr noundef null, ptr noundef %59)
  call void @llvm.lifetime.end.p0(i64 4, ptr %6) #6
  call void @llvm.lifetime.end.p0(i64 4, ptr %5) #6
  ret void
}