; Function Attrs: nounwind uwtable
define void @lv_obj_remove_from_subject(ptr noundef %0, ptr noundef %1) local_unnamed_addr #0 {
  %3 = getelementptr inbounds nuw i8, ptr %0, i64 16
  %4 = load ptr, ptr %3, align 8, !tbaa !18
  %.not = icmp eq ptr %4, null
  br i1 %.not, label %._crit_edge, label %5

5:                                                ; preds = %2
  %6 = getelementptr inbounds nuw i8, ptr %4, i64 16
  %7 = tail call i32 @lv_event_get_count(ptr noundef nonnull %6) #9
  %8 = icmp sgt i32 %7, 0
  br i1 %8, label %.lr.ph, label %._crit_edge

.lr.ph:                                           ; preds = %5
  %9 = add nsw i32 %7, -1
  %10 = icmp eq ptr %1, null
  br i1 %10, label %.lr.ph.split.us, label %.lr.ph.split

.lr.ph.split.us:                                  ; preds = %.lr.ph, %29
  %.019.us = phi i32 [ %30, %29 ], [ %9, %.lr.ph ]
  %11 = tail call ptr @lv_obj_get_event_dsc(ptr noundef %0, i32 noundef %.019.us) #9
  %12 = load ptr, ptr %11, align 8, !tbaa !26
  %13 = icmp eq ptr %12, @unsubscribe_on_delete_cb
  br i1 %13, label %14, label %29

14:                                               ; preds = %.lr.ph.split.us
  %15 = getelementptr inbounds nuw i8, ptr %11, i64 8
  %16 = load ptr, ptr %15, align 8, !tbaa !28
  %.not.i.us = icmp eq ptr %16, null
  br i1 %.not.i.us, label %.preheader.i, label %.thread.us

.thread.us:                                       ; preds = %14
  %17 = load ptr, ptr %16, align 8, !tbaa !9
  %18 = getelementptr inbounds nuw i8, ptr %17, i64 48
  %19 = load i32, ptr %18, align 8
  %20 = or i32 %19, 268435456
  store i32 %20, ptr %18, align 8
  %21 = load ptr, ptr %16, align 8, !tbaa !9
  tail call void @lv_ll_remove(ptr noundef %21, ptr noundef nonnull %16) #9
  %22 = getelementptr inbounds nuw i8, ptr %16, i64 32
  %23 = load i8, ptr %22, align 8
  %24 = and i8 %23, 1
  %.not7.i.us = icmp eq i8 %24, 0
  br i1 %.not7.i.us, label %lv_observer_remove.exit.us, label %25

25:                                               ; preds = %.thread.us
  %26 = getelementptr inbounds nuw i8, ptr %16, i64 24
  %27 = load ptr, ptr %26, align 8, !tbaa !13
  tail call void @lv_free(ptr noundef %27) #9
  br label %lv_observer_remove.exit.us

lv_observer_remove.exit.us:                       ; preds = %25, %.thread.us
  tail call void @lv_free(ptr noundef nonnull %16) #9
  %28 = tail call zeroext i1 @lv_obj_remove_event(ptr noundef %0, i32 noundef %.019.us) #9
  br label %29

29:                                               ; preds = %lv_observer_remove.exit.us, %.lr.ph.split.us
  %30 = add nsw i32 %.019.us, -1
  %31 = icmp sgt i32 %.019.us, 0
  br i1 %31, label %.lr.ph.split.us, label %._crit_edge, !llvm.loop !29

.lr.ph.split:                                     ; preds = %.lr.ph, %51
  %.019 = phi i32 [ %52, %51 ], [ %9, %.lr.ph ]
  %32 = tail call ptr @lv_obj_get_event_dsc(ptr noundef %0, i32 noundef %.019) #9
  %33 = load ptr, ptr %32, align 8, !tbaa !26
  %34 = icmp eq ptr %33, @unsubscribe_on_delete_cb
  br i1 %34, label %35, label %51

35:                                               ; preds = %.lr.ph.split
  %36 = getelementptr inbounds nuw i8, ptr %32, i64 8
  %37 = load ptr, ptr %36, align 8, !tbaa !28
  %38 = load ptr, ptr %37, align 8, !tbaa !9
  %39 = icmp eq ptr %1, %38
  br i1 %39, label %.thread, label %51

.preheader.i:                                     ; preds = %14, %.preheader.i
  br label %.preheader.i

.thread:                                          ; preds = %35
  %40 = getelementptr inbounds nuw i8, ptr %38, i64 48
  %41 = load i32, ptr %40, align 8
  %42 = or i32 %41, 268435456
  store i32 %42, ptr %40, align 8
  %43 = load ptr, ptr %37, align 8, !tbaa !9
  tail call void @lv_ll_remove(ptr noundef %43, ptr noundef nonnull %37) #9
  %44 = getelementptr inbounds nuw i8, ptr %37, i64 32
  %45 = load i8, ptr %44, align 8
  %46 = and i8 %45, 1
  %.not7.i = icmp eq i8 %46, 0
  br i1 %.not7.i, label %lv_observer_remove.exit, label %47

47:                                               ; preds = %.thread
  %48 = getelementptr inbounds nuw i8, ptr %37, i64 24
  %49 = load ptr, ptr %48, align 8, !tbaa !13
  tail call void @lv_free(ptr noundef %49) #9
  br label %lv_observer_remove.exit

lv_observer_remove.exit:                          ; preds = %.thread, %47
  tail call void @lv_free(ptr noundef nonnull %37) #9
  %50 = tail call zeroext i1 @lv_obj_remove_event(ptr noundef %0, i32 noundef %.019) #9
  br label %51

51:                                               ; preds = %35, %lv_observer_remove.exit, %.lr.ph.split
  %52 = add nsw i32 %.019, -1
  %53 = icmp sgt i32 %.019, 0
  br i1 %53, label %.lr.ph.split, label %._crit_edge, !llvm.loop !29

._crit_edge:                                      ; preds = %51, %29, %2, %5
  %54 = tail call i32 @lv_obj_remove_event_cb_with_user_data(ptr noundef %0, ptr noundef null, ptr noundef %1) #9
  ret void
}